(lp0
(F0.0
F0.0
F0.36524
F0.16099
F0.3381
tp1
a(F0.55
F0.10018605866916833
F0.36738
F0.16224
F0.33985
tp2
a(F0.65
F0.23736044124449618
F0.36595
F0.15967
F0.33796
tp3
a(F0.67
F0.27714074607932954
F0.36343
F0.15755
F0.3353
tp4
a(F0.68
F0.2982505419718302
F0.36212
F0.15634
F0.33387
tp5
a(F0.69
F0.3210321203329458
F0.36051
F0.15527
F0.33241
tp6
a(F0.7
F0.34642039970873456
F0.3587
F0.15383
F0.33066
tp7
a(F0.75
F0.4857854930048349
F0.34264
F0.14195
F0.31564
tp8
a(F0.8
F0.6509685672934582
F0.30628
F0.11848
F0.28129
tp9
a.